Certificate:
    Data:
        Version: 3 (0x2)
        Serial Number: 1 (0x1)
        Signature Algorithm: sha256WithRSAEncryption
        Issuer: CN=devcert
        Validity
            Not Before: Apr 28 02:52:49 2020 GMT
            Not After : Aug  1 02:52:49 2022 GMT
        Subject: CN=localhost
        Subject Public Key Info:
            Public Key Algorithm: rsaEncryption
                RSA Public-Key: (2048 bit)
                Modulus:
                    00:cf:ec:01:da:b5:10:6a:1c:74:d4:bf:46:6c:0d:
                    fd:e7:d6:1b:05:61:dc:ab:97:ed:6b:99:b2:8e:b0:
                    87:ef:48:49:af:94:25:64:11:60:9f:4c:85:14:6e:
                    a4:f1:bb:85:48:83:e4:82:76:8d:b9:8f:e5:ea:d5:
                    9f:a4:55:c2:8f:d8:15:41:d6:8b:c9:ec:a5:b0:1b:
                    5c:5f:ba:66:14:39:c6:a4:7d:6f:73:d6:2b:a1:ef:
                    6c:8c:af:f2:d4:ad:dc:2f:33:46:59:d8:6a:f7:a0:
                    11:bb:37:12:cc:46:7c:89:45:64:7a:5f:5c:89:95:
                    83:24:47:0d:2b:86:f4:27:a7:cb:1e:94:11:fc:77:
                    ce:53:b1:ea:b1:94:2b:e7:7d:04:40:d1:ab:05:22:
                    17:09:8a:53:20:0d:7d:6e:2b:0f:fb:c1:9b:ee:4f:
                    08:ee:ba:1a:03:70:fa:09:b4:48:08:ad:b8:b4:6a:
                    de:b5:bd:23:5f:1a:0c:d4:6c:92:cb:df:52:1c:c9:
                    32:1d:10:02:72:89:51:25:b2:ff:a7:91:d6:80:33:
                    92:2b:f9:46:8b:21:b2:ea:30:e1:ce:4f:63:4e:f2:
                    ec:4b:32:bc:d5:e4:9f:6f:32:5a:37:33:dc:2b:a0:
                    a1:d5:2d:6d:52:47:06:77:af:5e:2f:e9:f3:ad:97:
                    f9:7d
                Exponent: 65537 (0x10001)
        X509v3 extensions:
            X509v3 Basic Constraints: critical
                CA:FALSE
            X509v3 Subject Key Identifier: 
                69:E7:00:A9:3C:70:A1:87:D5:5C:EA:3B:8E:25:B0:B0:4C:87:77:E4
            X509v3 Authority Key Identifier: 
                keyid:BF:21:EB:4D:14:76:9A:02:71:84:DB:87:F3:C6:4C:38:37:FF:A7:E9
                DirName:/CN=devcert
                serial:5A:63:E4:53:67:AF:6A:52:2E:C5:EE:F5:A2:5B:A1:D8:E5:03:42:B4

            X509v3 Key Usage: critical
                Digital Signature, Key Encipherment
            X509v3 Extended Key Usage: 
                TLS Web Server Authentication
            X509v3 Subject Alternative Name: 
                DNS:localhost, DNS:*.localhost
    Signature Algorithm: sha256WithRSAEncryption
         51:e7:84:09:24:02:55:cb:20:fa:e6:75:86:c7:f1:a2:be:f2:
         42:77:10:0e:93:1d:87:82:cb:3c:17:0c:4e:f7:c6:bd:ad:cc:
         24:16:de:38:4f:b0:7b:05:9d:b3:35:38:c8:6d:b3:01:30:8a:
         4b:13:a3:78:43:d0:73:0d:f6:ee:96:37:d2:58:6f:11:84:12:
         06:b7:7a:4a:05:14:6b:fe:c8:6b:62:c2:22:53:73:74:08:50:
         c7:01:ae:03:10:7c:04:d6:07:7e:cf:ac:41:f6:9c:13:8c:19:
         45:50:3f:12:b9:e3:d1:cc:17:23:53:57:74:25:ff:48:f0:29:
         2d:35:6e:8c:cb:c7:fc:76:66:04:7b:06:eb:71:53:ca:cf:d9:
         33:a5:fe:10:1b:14:f4:aa:2c:7f:52:b8:90:f4:f3:bd:35:e7:
         74:bb:b5:c8:82:a3:2f:98:46:57:bf:7b:82:e6:27:da:29:9f:
         91:bc:ec:f0:ca:10:14:3b:b2:a7:73:70:0d:db:db:b4:f9:b9:
         73:9e:87:7b:53:ce:67:95:9c:64:0f:a1:c8:94:bb:29:c5:f8:
         07:de:bb:4b:5e:e7:a9:2b:55:04:38:24:56:6d:59:7c:9f:8e:
         e6:f8:11:11:0b:7a:95:f2:d1:ee:eb:02:2e:38:38:3c:a7:c9:
         9a:63:3d:54
-----BEGIN CERTIFICATE-----
MIIDaTCCAlGgAwIBAgIBATANBgkqhkiG9w0BAQsFADASMRAwDgYDVQQDDAdkZXZj
ZXJ0MB4XDTIwMDQyODAyNTI0OVoXDTIyMDgwMTAyNTI0OVowFDESMBAGA1UEAwwJ
bG9jYWxob3N0MIIBIjANBgkqhkiG9w0BAQEFAAOCAQ8AMIIBCgKCAQEAz+wB2rUQ
ahx01L9GbA3959YbBWHcq5fta5myjrCH70hJr5QlZBFgn0yFFG6k8buFSIPkgnaN
uY/l6tWfpFXCj9gVQdaLyeylsBtcX7pmFDnGpH1vc9Yroe9sjK/y1K3cLzNGWdhq
96ARuzcSzEZ8iUVkel9ciZWDJEcNK4b0J6fLHpQR/HfOU7HqsZQr530EQNGrBSIX
CYpTIA19bisP+8Gb7k8I7roaA3D6CbRICK24tGretb0jXxoM1GySy99SHMkyHRAC
colRJbL/p5HWgDOSK/lGiyGy6jDhzk9jTvLsSzK81eSfbzJaNzPcK6Ch1S1tUkcG
d69eL+nzrZf5fQIDAQABo4HHMIHEMAwGA1UdEwEB/wQCMAAwHQYDVR0OBBYEFGnn
AKk8cKGH1VzqO44lsLBMh3fkME0GA1UdIwRGMESAFL8h600UdpoCcYTbh/PGTDg3
/6fpoRakFDASMRAwDgYDVQQDDAdkZXZjZXJ0ghRaY+RTZ69qUi7F7vWiW6HY5QNC
tDAOBgNVHQ8BAf8EBAMCBaAwEwYDVR0lBAwwCgYIKwYBBQUHAwEwIQYDVR0RBBow
GIIJbG9jYWxob3N0ggsqLmxvY2FsaG9zdDANBgkqhkiG9w0BAQsFAAOCAQEAUeeE
CSQCVcsg+uZ1hsfxor7yQncQDpMdh4LLPBcMTvfGva3MJBbeOE+wewWdszU4yG2z
ATCKSxOjeEPQcw327pY30lhvEYQSBrd6SgUUa/7Ia2LCIlNzdAhQxwGuAxB8BNYH
fs+sQfacE4wZRVA/Ernj0cwXI1NXdCX/SPApLTVujMvH/HZmBHsG63FTys/ZM6X+
EBsU9Kosf1K4kPTzvTXndLu1yIKjL5hGV797guYn2imfkbzs8MoQFDuyp3NwDdvb
tPm5c56He1POZ5WcZA+hyJS7KcX4B967S17nqStVBDgkVm1ZfJ+O5vgREQt6lfLR
7usCLjg4PKfJmmM9VA==
-----END CERTIFICATE-----
